; Function Attrs: nounwind sspstrong uwtable
define dso_local void @qemu_input_event_send(ptr noundef %src, ptr noundef %evt) local_unnamed_addr #0 {
entry:
  %0 = load i32, ptr %evt, align 8
  %cmp = icmp eq i32 %0, 0
  br i1 %cmp, label %land.lhs.true, label %if.end18

land.lhs.true:                                    ; preds = %entry
  %u = getelementptr inbounds nuw i8, ptr %evt, i64 8
  %1 = load ptr, ptr %u, align 8
  %2 = load ptr, ptr %1, align 8
  %3 = load i32, ptr %2, align 8
  %cmp2 = icmp eq i32 %3, 0
  br i1 %cmp2, label %if.else, label %land.lhs.true5

if.else:                                          ; preds = %land.lhs.true
  tail call void @__assert_fail(ptr noundef nonnull @.str.3, ptr noundef nonnull @.str, i32 noundef 362, ptr noundef nonnull @__PRETTY_FUNCTION__.qemu_input_event_send) #13
  unreachable

land.lhs.true5:                                   ; preds = %land.lhs.true
  %u9 = getelementptr inbounds nuw i8, ptr %2, i64 8
  %4 = load i32, ptr %u9, align 8
  %cmp11 = icmp eq i32 %4, 80
  br i1 %cmp11, label %if.then12, label %if.end18

if.then12:                                        ; preds = %land.lhs.true5
  store i32 94, ptr %u9, align 8
  br label %if.end18

if.end18:                                         ; preds = %entry, %if.then12, %land.lhs.true5
  %call = tail call zeroext i1 @runstate_is_running() #12
  br i1 %call, label %if.end22, label %land.lhs.true19

land.lhs.true19:                                  ; preds = %if.end18
  %call20 = tail call zeroext i1 @runstate_check(i32 noundef 12) #12
  br i1 %call20, label %if.end22, label %return

if.end22:                                         ; preds = %land.lhs.true19, %if.end18
  tail call void @replay_input_event(ptr noundef %src, ptr noundef nonnull %evt) #12
  br label %return

return:                                           ; preds = %land.lhs.true19, %if.end22
  ret void
}